(dp0
S'vocab_size'
p1
I110
sS'num_layers'
p2
I2
sS'batch_size'
p3
I20
sS'embed_size'
p4
I64
sS'keep_prob'
p5
F1.0
sS'lstm_size'
p6
I256
sS'learn_rate'
p7
F0.0001
sS'seq_length'
p8
I50
sS'name'
p9
S'cases'
p10
s.